Certificate:
    Data:
        Version: 3 (0x2)
        Serial Number: 3159556 (0x303604)
    Signature Algorithm: sha1WithRSAEncryption
        Issuer: C=US, ST=Florida, L=Miami, O=Basho, OU=Riak Ruby Client, CN=CA/emailAddress=bryce@basho.com
        Validity
            Not Before: Sep 18 22:58:02 2014 GMT
            Not After : Sep 15 22:58:02 2024 GMT
        Subject: C=US, ST=Florida, O=Basho, OU=Riak Ruby client, CN=certuser/emailAddress=bryce@basho.com
        Subject Public Key Info:
            Public Key Algorithm: rsaEncryption
                Public-Key: (2048 bit)
                Modulus:
                    00:c7:41:8f:53:a0:25:0a:03:62:ba:90:f4:a6:ee:
                    4e:97:5f:70:a6:9f:23:38:2f:4b:16:b2:81:eb:95:
                    d1:0d:64:56:11:fb:e3:07:7b:cd:07:d8:64:eb:9f:
                    b6:4b:3e:54:a3:eb:79:8e:0f:ae:a4:eb:53:ba:44:
                    a2:e2:ca:d8:94:34:75:a9:62:d7:d9:34:41:8f:7c:
                    a2:9f:90:84:5a:d7:c4:c5:76:d8:89:6f:f6:5e:40:
                    89:34:f6:56:d5:e6:55:d7:a6:44:52:8c:27:9b:75:
                    66:b4:84:f6:5d:e9:5d:a8:6c:a7:27:f5:bc:28:23:
                    1a:ec:94:e4:8f:26:fd:22:19:44:dc:ff:ab:c7:76:
                    c5:8b:69:67:1d:58:b5:54:43:9c:19:5e:f6:47:4a:
                    83:74:8c:43:bb:48:bd:b1:03:53:4f:a9:8e:be:8e:
                    df:a5:69:d3:e9:2f:92:9e:86:3f:27:ca:62:bb:6f:
                    4f:f0:d7:62:7a:41:b5:32:b7:f1:8d:a5:2e:c1:ee:
                    9e:58:d3:9a:c8:5c:f6:26:d4:23:92:46:89:43:83:
                    66:b8:7b:50:af:eb:31:36:0e:4d:a6:99:79:19:22:
                    61:c4:80:06:b1:09:15:d3:eb:96:d6:ea:09:c0:10:
                    7c:23:99:55:03:43:a5:1a:1e:1a:3d:04:88:51:4d:
                    5b:65
                Exponent: 65537 (0x10001)
        X509v3 extensions:
            X509v3 Basic Constraints: 
                CA:FALSE
            Netscape Cert Type: 
                SSL Client, SSL Server
            X509v3 Key Usage: 
                Digital Signature, Non Repudiation, Key Encipherment
            Netscape Comment: 
                Riak Ruby Client Testing Certificate
            X509v3 Subject Key Identifier: 
                EF:CB:1D:7C:D9:6F:E3:4C:D6:5C:7A:8B:F7:19:88:27:35:4C:84:19
            X509v3 Authority Key Identifier: 
                DirName:/C=US/ST=Florida/L=Miami/O=Basho/OU=Riak Ruby Client/CN=CA/emailAddress=bryce@basho.com
                serial:C2:68:26:EE:1F:93:75:1E

            X509v3 Extended Key Usage: 
                TLS Web Server Authentication, TLS Web Client Authentication
    Signature Algorithm: sha1WithRSAEncryption
         46:28:58:b9:b4:d8:95:c1:bd:3a:1c:9e:96:44:bf:4a:b2:a7:
         a4:f7:be:0f:4a:d2:96:aa:77:f0:d3:6c:f9:06:cb:ec:1c:6f:
         88:a3:fa:d0:39:e9:75:eb:39:33:0e:6e:6e:5c:99:b6:7d:70:
         cf:53:f9:06:d5:97:2f:1c:ca:f5:32:97:06:93:8f:cd:43:82:
         3e:8b:b3:f4:d7:e9:f3:76:9b:83:9f:6d:f6:b0:e4:e4:de:bc:
         26:05:5a:12:bf:28:8e:65:2d:c6:ce:c6:49:fa:30:6f:07:a7:
         88:8d:0f:60:81:ac:96:5c:bb:8b:0f:2b:88:9d:90:b7:c5:23:
         0d:83:29:4a:41:b6:c8:5e:4e:61:09:6a:db:73:40:c0:d0:af:
         9f:07:38:2d:5f:d0:de:46:31:c4:90:cf:73:01:1c:7c:c8:48:
         bc:ef:11:1e:ba:ed:0d:3b:f4:c6:96:76:fe:7a:e0:39:aa:99:
         bb:9b:2a:5c:ee:ae:02:a0:95:5e:b6:64:b9:89:e7:9f:89:44:
         5a:89:73:7b:0f:fe:4c:b9:e2:3a:d1:2b:12:aa:83:d9:c5:63:
         4c:18:df:de:e1:79:25:24:8d:28:26:0d:3e:01:46:8a:3b:43:
         17:70:2a:c5:d2:3a:65:4a:1d:49:af:40:5d:3a:de:f4:c5:e8:
         99:7a:72:48
-----BEGIN CERTIFICATE-----
MIIEzzCCA7egAwIBAgIDMDYEMA0GCSqGSIb3DQEBBQUAMIGHMQswCQYDVQQGEwJV
UzEQMA4GA1UECAwHRmxvcmlkYTEOMAwGA1UEBwwFTWlhbWkxDjAMBgNVBAoMBUJh
c2hvMRkwFwYDVQQLDBBSaWFrIFJ1YnkgQ2xpZW50MQswCQYDVQQDDAJDQTEeMBwG
CSqGSIb3DQEJARYPYnJ5Y2VAYmFzaG8uY29tMB4XDTE0MDkxODIyNTgwMloXDTI0
MDkxNTIyNTgwMlowfTELMAkGA1UEBhMCVVMxEDAOBgNVBAgMB0Zsb3JpZGExDjAM
BgNVBAoMBUJhc2hvMRkwFwYDVQQLDBBSaWFrIFJ1YnkgY2xpZW50MREwDwYDVQQD
DAhjZXJ0dXNlcjEeMBwGCSqGSIb3DQEJARYPYnJ5Y2VAYmFzaG8uY29tMIIBIjAN
BgkqhkiG9w0BAQEFAAOCAQ8AMIIBCgKCAQEAx0GPU6AlCgNiupD0pu5Ol19wpp8j
OC9LFrKB65XRDWRWEfvjB3vNB9hk65+2Sz5Uo+t5jg+upOtTukSi4srYlDR1qWLX
2TRBj3yin5CEWtfExXbYiW/2XkCJNPZW1eZV16ZEUownm3VmtIT2XeldqGynJ/W8
KCMa7JTkjyb9IhlE3P+rx3bFi2lnHVi1VEOcGV72R0qDdIxDu0i9sQNTT6mOvo7f
pWnT6S+SnoY/J8piu29P8NdiekG1MrfxjaUuwe6eWNOayFz2JtQjkkaJQ4NmuHtQ
r+sxNg5Nppl5GSJhxIAGsQkV0+uW1uoJwBB8I5lVA0OlGh4aPQSIUU1bZQIDAQAB
o4IBSzCCAUcwCQYDVR0TBAIwADARBglghkgBhvhCAQEEBAMCBsAwCwYDVR0PBAQD
AgXgMDMGCWCGSAGG+EIBDQQmFiRSaWFrIFJ1YnkgQ2xpZW50IFRlc3RpbmcgQ2Vy
dGlmaWNhdGUwHQYDVR0OBBYEFO/LHXzZb+NM1lx6i/cZiCc1TIQZMIGmBgNVHSME
gZ4wgZuhgY2kgYowgYcxCzAJBgNVBAYTAlVTMRAwDgYDVQQIDAdGbG9yaWRhMQ4w
DAYDVQQHDAVNaWFtaTEOMAwGA1UECgwFQmFzaG8xGTAXBgNVBAsMEFJpYWsgUnVi
eSBDbGllbnQxCzAJBgNVBAMMAkNBMR4wHAYJKoZIhvcNAQkBFg9icnljZUBiYXNo
by5jb22CCQDCaCbuH5N1HjAdBgNVHSUEFjAUBggrBgEFBQcDAQYIKwYBBQUHAwIw
DQYJKoZIhvcNAQEFBQADggEBAEYoWLm02JXBvTocnpZEv0qyp6T3vg9K0paqd/DT
bPkGy+wcb4ij+tA56XXrOTMObm5cmbZ9cM9T+QbVly8cyvUylwaTj81Dgj6Ls/TX
6fN2m4Ofbfaw5OTevCYFWhK/KI5lLcbOxkn6MG8Hp4iND2CBrJZcu4sPK4idkLfF
Iw2DKUpBtsheTmEJattzQMDQr58HOC1f0N5GMcSQz3MBHHzISLzvER667Q079MaW
dv564DmqmbubKlzurgKglV62ZLmJ55+JRFqJc3sP/ky54jrRKxKqg9nFY0wY397h
eSUkjSgmDT4BRoo7QxdwKsXSOmVKHUmvQF063vTF6Jl6ckg=
-----END CERTIFICATE-----
