Certificate:
    Data:
        Version: 3 (0x2)
        Serial Number: 3159555 (0x303603)
    Signature Algorithm: sha1WithRSAEncryption
        Issuer: C=US, ST=Florida, L=Miami, O=Basho, OU=Riak Ruby Client, CN=CA/emailAddress=bryce@basho.com
        Validity
            Not Before: Sep 18 22:58:02 2014 GMT
            Not After : Sep 15 22:58:02 2024 GMT
        Subject: C=US, ST=Florida, O=Basho, OU=Riak Ruby client, CN=riak@127.0.0.1/emailAddress=bryce@basho.com
        Subject Public Key Info:
            Public Key Algorithm: rsaEncryption
                Public-Key: (2048 bit)
                Modulus:
                    00:ca:94:6a:54:b6:5b:ee:56:f2:d6:e1:01:7b:87:
                    ef:91:f5:4a:a5:51:af:11:69:6e:fc:53:1c:c2:73:
                    49:72:0f:80:6b:47:d4:3c:b9:03:1f:fa:51:85:dc:
                    1d:d0:52:ac:cd:97:37:0b:86:fd:f7:3c:f6:9c:ad:
                    b7:06:54:14:f3:3c:a1:cf:fe:57:b2:14:91:de:17:
                    59:5f:c1:86:81:2f:15:8a:c5:85:de:cb:d4:88:9a:
                    f8:04:45:dc:6a:e9:f5:58:96:f1:2a:ca:5d:d7:e3:
                    f4:ea:1d:f7:34:ae:98:c2:94:05:74:de:c3:72:51:
                    47:8a:e2:1f:e1:b3:d7:aa:dd:46:04:f8:45:fb:0d:
                    8b:a5:3b:57:74:14:df:05:6a:ef:9d:f4:1a:9d:e1:
                    f5:8e:90:ca:dc:e3:75:c9:ac:cc:da:f4:a2:f5:e4:
                    d4:84:ee:fa:ce:8b:35:5f:05:32:be:3a:23:5f:77:
                    ce:78:e6:98:8e:d3:d7:70:96:71:14:a7:90:69:3d:
                    d7:18:5c:ed:cf:25:b7:c7:56:15:9f:24:c0:d7:2b:
                    59:68:94:89:2c:56:6b:b4:67:e3:ce:09:cc:8e:1a:
                    83:32:af:fd:a0:cd:df:b2:8a:db:d6:44:6b:25:af:
                    54:a8:70:88:03:0b:c6:9c:9a:dd:d7:d1:59:26:bc:
                    c3:43
                Exponent: 65537 (0x10001)
        X509v3 extensions:
            X509v3 Basic Constraints: 
                CA:FALSE
            Netscape Cert Type: 
                SSL Client, SSL Server
            X509v3 Key Usage: 
                Digital Signature, Non Repudiation, Key Encipherment
            Netscape Comment: 
                Riak Ruby Client Testing Certificate
            X509v3 Subject Key Identifier: 
                F9:FB:09:A9:5A:C6:BC:B2:59:39:29:88:8C:A2:83:56:DD:9B:CD:4E
            X509v3 Authority Key Identifier: 
                DirName:/C=US/ST=Florida/L=Miami/O=Basho/OU=Riak Ruby Client/CN=CA/emailAddress=bryce@basho.com
                serial:C2:68:26:EE:1F:93:75:1E

            X509v3 Extended Key Usage: 
                TLS Web Server Authentication, TLS Web Client Authentication
    Signature Algorithm: sha1WithRSAEncryption
         00:b9:e8:c6:0d:d3:fb:86:c3:a6:bd:c8:18:f7:71:26:c5:34:
         42:66:79:77:2c:31:23:e4:bf:4d:8a:21:d9:de:da:b6:00:d6:
         84:3a:17:63:5a:16:d1:01:ed:c6:a3:20:87:5f:da:d7:fe:e0:
         99:f6:3b:83:35:4c:82:5e:d7:21:2a:2a:bc:d9:72:78:64:6c:
         6c:b6:9a:56:ac:f8:dc:21:1d:05:db:e2:30:22:d7:8d:0b:94:
         91:82:04:0a:0a:e0:78:01:84:9e:dd:77:e6:d5:9c:ca:71:23:
         6b:d1:67:c5:f3:87:fa:51:f9:6c:04:54:e9:a4:66:9a:b0:f7:
         b7:40:9a:b6:c8:ee:c3:5e:eb:c2:03:30:1a:4c:63:f5:8e:fb:
         9e:45:f0:a8:62:5c:be:8c:42:bb:84:ea:41:df:4e:2c:64:9c:
         34:bc:b7:b8:54:7f:10:75:fa:0b:34:0a:62:0c:78:72:6a:c5:
         89:e4:3c:31:36:96:08:83:ce:4f:3c:2d:e9:d1:4b:42:cc:59:
         0b:af:ce:83:79:02:4d:35:07:dc:09:17:ee:27:c0:b0:17:3d:
         d8:9a:e4:99:3a:aa:ca:e7:30:29:2b:5a:19:5c:cc:8c:04:94:
         2a:69:37:11:ee:dc:99:70:b6:e0:9b:43:b8:fc:1e:c6:20:f1:
         80:1c:de:68
-----BEGIN CERTIFICATE-----
MIIE1jCCA76gAwIBAgIDMDYDMA0GCSqGSIb3DQEBBQUAMIGHMQswCQYDVQQGEwJV
UzEQMA4GA1UECAwHRmxvcmlkYTEOMAwGA1UEBwwFTWlhbWkxDjAMBgNVBAoMBUJh
c2hvMRkwFwYDVQQLDBBSaWFrIFJ1YnkgQ2xpZW50MQswCQYDVQQDDAJDQTEeMBwG
CSqGSIb3DQEJARYPYnJ5Y2VAYmFzaG8uY29tMB4XDTE0MDkxODIyNTgwMloXDTI0
MDkxNTIyNTgwMlowgYMxCzAJBgNVBAYTAlVTMRAwDgYDVQQIDAdGbG9yaWRhMQ4w
DAYDVQQKDAVCYXNobzEZMBcGA1UECwwQUmlhayBSdWJ5IGNsaWVudDEXMBUGA1UE
AwwOcmlha0AxMjcuMC4wLjExHjAcBgkqhkiG9w0BCQEWD2JyeWNlQGJhc2hvLmNv
bTCCASIwDQYJKoZIhvcNAQEBBQADggEPADCCAQoCggEBAMqUalS2W+5W8tbhAXuH
75H1SqVRrxFpbvxTHMJzSXIPgGtH1Dy5Ax/6UYXcHdBSrM2XNwuG/fc89pyttwZU
FPM8oc/+V7IUkd4XWV/BhoEvFYrFhd7L1Iia+ARF3Grp9ViW8SrKXdfj9Ood9zSu
mMKUBXTew3JRR4riH+Gz16rdRgT4RfsNi6U7V3QU3wVq7530Gp3h9Y6Qytzjdcms
zNr0ovXk1ITu+s6LNV8FMr46I193znjmmI7T13CWcRSnkGk91xhc7c8lt8dWFZ8k
wNcrWWiUiSxWa7Rn484JzI4agzKv/aDN37KK29ZEayWvVKhwiAMLxpya3dfRWSa8
w0MCAwEAAaOCAUswggFHMAkGA1UdEwQCMAAwEQYJYIZIAYb4QgEBBAQDAgbAMAsG
A1UdDwQEAwIF4DAzBglghkgBhvhCAQ0EJhYkUmlhayBSdWJ5IENsaWVudCBUZXN0
aW5nIENlcnRpZmljYXRlMB0GA1UdDgQWBBT5+wmpWsa8slk5KYiMooNW3ZvNTjCB
pgYDVR0jBIGeMIGboYGNpIGKMIGHMQswCQYDVQQGEwJVUzEQMA4GA1UECAwHRmxv
cmlkYTEOMAwGA1UEBwwFTWlhbWkxDjAMBgNVBAoMBUJhc2hvMRkwFwYDVQQLDBBS
aWFrIFJ1YnkgQ2xpZW50MQswCQYDVQQDDAJDQTEeMBwGCSqGSIb3DQEJARYPYnJ5
Y2VAYmFzaG8uY29tggkAwmgm7h+TdR4wHQYDVR0lBBYwFAYIKwYBBQUHAwEGCCsG
AQUFBwMCMA0GCSqGSIb3DQEBBQUAA4IBAQAAuejGDdP7hsOmvcgY93EmxTRCZnl3
LDEj5L9NiiHZ3tq2ANaEOhdjWhbRAe3GoyCHX9rX/uCZ9juDNUyCXtchKiq82XJ4
ZGxstppWrPjcIR0F2+IwIteNC5SRggQKCuB4AYSe3Xfm1ZzKcSNr0WfF84f6Ufls
BFTppGaasPe3QJq2yO7DXuvCAzAaTGP1jvueRfCoYly+jEK7hOpB304sZJw0vLe4
VH8QdfoLNApiDHhyasWJ5DwxNpYIg85PPC3p0UtCzFkLr86DeQJNNQfcCRfuJ8Cw
Fz3YmuSZOqrK5zApK1oZXMyMBJQqaTcR7tyZcLbgm0O4/B7GIPGAHN5o
-----END CERTIFICATE-----
